MPLINK 5.08, LINKER
Linker Map File - Created Wed Sep 21 21:19:03 2016

                                 Section Info
                  Section       Type    Address   Location Size(Bytes)
                ---------  ---------  ---------  ---------  ---------
                   .org_0       code   0x000000    program   0x000002
                   .cinit    romdata   0x000001    program   0x000004
                   .org_1       code   0x000008    program   0x000222
.config_2007_BUILD/DEFAULT/PRODUCTION/MAINPAR       code   0x002007    program   0x000002



                              Program Memory Usage 
                               Start         End      
                           ---------   ---------      
                            0x000000    0x000002      
                            0x000008    0x000118      
                            0x002007    0x002007      
            277 out of 2182 program addresses used, program memory utilization is 12%



                              Symbols - Sorted by Name
                     Name    Address   Location    Storage File                     
                ---------  ---------  ---------  --------- ---------                
                  INT0ISR   0x000098    program     static C:\Users\Julian Santos\MPLABXProjects\Parcial I.X\mainParcial.asm
                      ISR   0x000081    program     static C:\Users\Julian Santos\MPLABXProjects\Parcial I.X\mainParcial.asm
                  TMR0ISR   0x00008a    program     static C:\Users\Julian Santos\MPLABXProjects\Parcial I.X\mainParcial.asm
                       d0   0x0000f3    program     static C:\Users\Julian Santos\MPLABXProjects\Parcial I.X\mainParcial.asm
                       d1   0x0000f6    program     static C:\Users\Julian Santos\MPLABXProjects\Parcial I.X\mainParcial.asm
                       d2   0x0000ff    program     static C:\Users\Julian Santos\MPLABXProjects\Parcial I.X\mainParcial.asm
                    delay   0x0000fb    program     static C:\Users\Julian Santos\MPLABXProjects\Parcial I.X\mainParcial.asm
                delay10ms   0x0000f1    program     static C:\Users\Julian Santos\MPLABXProjects\Parcial I.X\mainParcial.asm
                delayW0ms   0x0000fe    program     static C:\Users\Julian Santos\MPLABXProjects\Parcial I.X\mainParcial.asm
                 initINT0   0x000080    program     static C:\Users\Julian Santos\MPLABXProjects\Parcial I.X\mainParcial.asm
                 initTMR0   0x000074    program     static C:\Users\Julian Santos\MPLABXProjects\Parcial I.X\mainParcial.asm
            initialconfig   0x00004e    program     static C:\Users\Julian Santos\MPLABXProjects\Parcial I.X\mainParcial.asm
            initialstates   0x000059    program     static C:\Users\Julian Santos\MPLABXProjects\Parcial I.X\mainParcial.asm
                    latch   0x00004b    program     static C:\Users\Julian Santos\MPLABXProjects\Parcial I.X\mainParcial.asm
                     letA   0x00010d    program     static C:\Users\Julian Santos\MPLABXProjects\Parcial I.X\mainParcial.asm
                     letB   0x00010e    program     static C:\Users\Julian Santos\MPLABXProjects\Parcial I.X\mainParcial.asm
                     letC   0x00010f    program     static C:\Users\Julian Santos\MPLABXProjects\Parcial I.X\mainParcial.asm
                     letD   0x000110    program     static C:\Users\Julian Santos\MPLABXProjects\Parcial I.X\mainParcial.asm
                     letE   0x000111    program     static C:\Users\Julian Santos\MPLABXProjects\Parcial I.X\mainParcial.asm
                     letF   0x000112    program     static C:\Users\Julian Santos\MPLABXProjects\Parcial I.X\mainParcial.asm
                     letH   0x000113    program     static C:\Users\Julian Santos\MPLABXProjects\Parcial I.X\mainParcial.asm
                     letL   0x000114    program     static C:\Users\Julian Santos\MPLABXProjects\Parcial I.X\mainParcial.asm
                     letN   0x000117    program     static C:\Users\Julian Santos\MPLABXProjects\Parcial I.X\mainParcial.asm
                     letP   0x000115    program     static C:\Users\Julian Santos\MPLABXProjects\Parcial I.X\mainParcial.asm
                     letU   0x000116    program     static C:\Users\Julian Santos\MPLABXProjects\Parcial I.X\mainParcial.asm
                     main   0x000009    program     static C:\Users\Julian Santos\MPLABXProjects\Parcial I.X\mainParcial.asm
                     none   0x000118    program     static C:\Users\Julian Santos\MPLABXProjects\Parcial I.X\mainParcial.asm
                     num0   0x000103    program     static C:\Users\Julian Santos\MPLABXProjects\Parcial I.X\mainParcial.asm
                     num1   0x000104    program     static C:\Users\Julian Santos\MPLABXProjects\Parcial I.X\mainParcial.asm
                     num2   0x000105    program     static C:\Users\Julian Santos\MPLABXProjects\Parcial I.X\mainParcial.asm
                     num3   0x000106    program     static C:\Users\Julian Santos\MPLABXProjects\Parcial I.X\mainParcial.asm
                     num4   0x000107    program     static C:\Users\Julian Santos\MPLABXProjects\Parcial I.X\mainParcial.asm
                     num5   0x000108    program     static C:\Users\Julian Santos\MPLABXProjects\Parcial I.X\mainParcial.asm
                     num6   0x000109    program     static C:\Users\Julian Santos\MPLABXProjects\Parcial I.X\mainParcial.asm
                     num7   0x00010a    program     static C:\Users\Julian Santos\MPLABXProjects\Parcial I.X\mainParcial.asm
                     num8   0x00010b    program     static C:\Users\Julian Santos\MPLABXProjects\Parcial I.X\mainParcial.asm
                     num9   0x00010c    program     static C:\Users\Julian Santos\MPLABXProjects\Parcial I.X\mainParcial.asm
                   pclock   0x000048    program     static C:\Users\Julian Santos\MPLABXProjects\Parcial I.X\mainParcial.asm
              rdebouncing   0x000010    program     static C:\Users\Julian Santos\MPLABXProjects\Parcial I.X\mainParcial.asm
                    send8   0x00003c    program     static C:\Users\Julian Santos\MPLABXProjects\Parcial I.X\mainParcial.asm
                  sendata   0x00002c    program     static C:\Users\Julian Santos\MPLABXProjects\Parcial I.X\mainParcial.asm
                showdigit   0x000017    program     static C:\Users\Julian Santos\MPLABXProjects\Parcial I.X\mainParcial.asm
                    tabla   0x00009c    program     static C:\Users\Julian Santos\MPLABXProjects\Parcial I.X\mainParcial.asm
                     task   0x00000d    program     static C:\Users\Julian Santos\MPLABXProjects\Parcial I.X\mainParcial.asm
             togglebuzzer   0x000012    program     static C:\Users\Julian Santos\MPLABXProjects\Parcial I.X\mainParcial.asm



                              Symbols - Sorted by Address
                     Name    Address   Location    Storage File                     
                ---------  ---------  ---------  --------- ---------                
                     main   0x000009    program     static C:\Users\Julian Santos\MPLABXProjects\Parcial I.X\mainParcial.asm
                     task   0x00000d    program     static C:\Users\Julian Santos\MPLABXProjects\Parcial I.X\mainParcial.asm
              rdebouncing   0x000010    program     static C:\Users\Julian Santos\MPLABXProjects\Parcial I.X\mainParcial.asm
             togglebuzzer   0x000012    program     static C:\Users\Julian Santos\MPLABXProjects\Parcial I.X\mainParcial.asm
                showdigit   0x000017    program     static C:\Users\Julian Santos\MPLABXProjects\Parcial I.X\mainParcial.asm
                  sendata   0x00002c    program     static C:\Users\Julian Santos\MPLABXProjects\Parcial I.X\mainParcial.asm
                    send8   0x00003c    program     static C:\Users\Julian Santos\MPLABXProjects\Parcial I.X\mainParcial.asm
                   pclock   0x000048    program     static C:\Users\Julian Santos\MPLABXProjects\Parcial I.X\mainParcial.asm
                    latch   0x00004b    program     static C:\Users\Julian Santos\MPLABXProjects\Parcial I.X\mainParcial.asm
            initialconfig   0x00004e    program     static C:\Users\Julian Santos\MPLABXProjects\Parcial I.X\mainParcial.asm
            initialstates   0x000059    program     static C:\Users\Julian Santos\MPLABXProjects\Parcial I.X\mainParcial.asm
                 initTMR0   0x000074    program     static C:\Users\Julian Santos\MPLABXProjects\Parcial I.X\mainParcial.asm
                 initINT0   0x000080    program     static C:\Users\Julian Santos\MPLABXProjects\Parcial I.X\mainParcial.asm
                      ISR   0x000081    program     static C:\Users\Julian Santos\MPLABXProjects\Parcial I.X\mainParcial.asm
                  TMR0ISR   0x00008a    program     static C:\Users\Julian Santos\MPLABXProjects\Parcial I.X\mainParcial.asm
                  INT0ISR   0x000098    program     static C:\Users\Julian Santos\MPLABXProjects\Parcial I.X\mainParcial.asm
                    tabla   0x00009c    program     static C:\Users\Julian Santos\MPLABXProjects\Parcial I.X\mainParcial.asm
                delay10ms   0x0000f1    program     static C:\Users\Julian Santos\MPLABXProjects\Parcial I.X\mainParcial.asm
                       d0   0x0000f3    program     static C:\Users\Julian Santos\MPLABXProjects\Parcial I.X\mainParcial.asm
                       d1   0x0000f6    program     static C:\Users\Julian Santos\MPLABXProjects\Parcial I.X\mainParcial.asm
                    delay   0x0000fb    program     static C:\Users\Julian Santos\MPLABXProjects\Parcial I.X\mainParcial.asm
                delayW0ms   0x0000fe    program     static C:\Users\Julian Santos\MPLABXProjects\Parcial I.X\mainParcial.asm
                       d2   0x0000ff    program     static C:\Users\Julian Santos\MPLABXProjects\Parcial I.X\mainParcial.asm
                     num0   0x000103    program     static C:\Users\Julian Santos\MPLABXProjects\Parcial I.X\mainParcial.asm
                     num1   0x000104    program     static C:\Users\Julian Santos\MPLABXProjects\Parcial I.X\mainParcial.asm
                     num2   0x000105    program     static C:\Users\Julian Santos\MPLABXProjects\Parcial I.X\mainParcial.asm
                     num3   0x000106    program     static C:\Users\Julian Santos\MPLABXProjects\Parcial I.X\mainParcial.asm
                     num4   0x000107    program     static C:\Users\Julian Santos\MPLABXProjects\Parcial I.X\mainParcial.asm
                     num5   0x000108    program     static C:\Users\Julian Santos\MPLABXProjects\Parcial I.X\mainParcial.asm
                     num6   0x000109    program     static C:\Users\Julian Santos\MPLABXProjects\Parcial I.X\mainParcial.asm
                     num7   0x00010a    program     static C:\Users\Julian Santos\MPLABXProjects\Parcial I.X\mainParcial.asm
                     num8   0x00010b    program     static C:\Users\Julian Santos\MPLABXProjects\Parcial I.X\mainParcial.asm
                     num9   0x00010c    program     static C:\Users\Julian Santos\MPLABXProjects\Parcial I.X\mainParcial.asm
                     letA   0x00010d    program     static C:\Users\Julian Santos\MPLABXProjects\Parcial I.X\mainParcial.asm
                     letB   0x00010e    program     static C:\Users\Julian Santos\MPLABXProjects\Parcial I.X\mainParcial.asm
                     letC   0x00010f    program     static C:\Users\Julian Santos\MPLABXProjects\Parcial I.X\mainParcial.asm
                     letD   0x000110    program     static C:\Users\Julian Santos\MPLABXProjects\Parcial I.X\mainParcial.asm
                     letE   0x000111    program     static C:\Users\Julian Santos\MPLABXProjects\Parcial I.X\mainParcial.asm
                     letF   0x000112    program     static C:\Users\Julian Santos\MPLABXProjects\Parcial I.X\mainParcial.asm
                     letH   0x000113    program     static C:\Users\Julian Santos\MPLABXProjects\Parcial I.X\mainParcial.asm
                     letL   0x000114    program     static C:\Users\Julian Santos\MPLABXProjects\Parcial I.X\mainParcial.asm
                     letP   0x000115    program     static C:\Users\Julian Santos\MPLABXProjects\Parcial I.X\mainParcial.asm
                     letU   0x000116    program     static C:\Users\Julian Santos\MPLABXProjects\Parcial I.X\mainParcial.asm
                     letN   0x000117    program     static C:\Users\Julian Santos\MPLABXProjects\Parcial I.X\mainParcial.asm
                     none   0x000118    program     static C:\Users\Julian Santos\MPLABXProjects\Parcial I.X\mainParcial.asm


